; Function Attrs: nounwind uwtable
define internal void @dissect_received_interference_power_measurement_value(ptr noundef %0, ptr readnone captures(none) %1) #0 {
  %3 = alloca i32, align 4
  %4 = load i32, ptr @hf_nfapi_number_of_resource_blocks, align 4
  %5 = call ptr @ptvcursor_add_ret_uint(ptr noundef %0, i32 noundef %4, i32 noundef 2, i32 noundef 0, ptr noundef nonnull %3) #7
  %6 = load i32, ptr @ett_nfapi_received_interference_power_mesurement_results, align 4
  %7 = load i32, ptr %3, align 4
  %.not.i = icmp eq i32 %7, 0
  br i1 %.not.i, label %dissect_array_value.exit, label %8

8:                                                ; preds = %2
  %9 = call ptr (ptr, i32, i32, ptr, ...) @ptvcursor_add_text_with_subtree(ptr noundef %0, i32 noundef -1, i32 noundef %6, ptr noundef nonnull @.str.1839, ptr noundef nonnull @.str.1872) #7
  br label %10

10:                                               ; preds = %10, %8
  %11 = phi i32 [ 0, %8 ], [ %16, %10 ]
  %.016.i = phi i16 [ 0, %8 ], [ %15, %10 ]
  %12 = call ptr (ptr, i32, i32, ptr, ...) @ptvcursor_add_text_with_subtree(ptr noundef %0, i32 noundef -1, i32 noundef %6, ptr noundef nonnull @.str.1840, i32 noundef %11) #7
  %13 = load i32, ptr @hf_nfapi_received_interference_power_measurement, align 4
  %14 = call ptr @ptvcursor_add(ptr noundef %0, i32 noundef %13, i32 noundef 2, i32 noundef 0) #7
  call void @ptvcursor_pop_subtree(ptr noundef %0) #7
  %15 = add i16 %.016.i, 1
  %16 = zext i16 %15 to i32
  %17 = icmp ugt i32 %7, %16
  br i1 %17, label %10, label %18, !llvm.loop !4

18:                                               ; preds = %10
  call void @ptvcursor_pop_subtree(ptr noundef %0) #7
  br label %dissect_array_value.exit

dissect_array_value.exit:                         ; preds = %2, %18
  ret void
}